target datalayout = "e-m:e-p270:32:32-p271:32:32-p272:64:64-i64:64-i128:128-f80:128-n8:16:32:64-S128"
target triple = "x86_64-pc-linux-gnu"

%struct.prolog_state = type { ptr, i32, i32, i32, i32, i32 }

; Function Attrs: nounwind uwtable
define internal i32 @common(ptr noundef %0, i32 noundef %1) #0 {
  %3 = alloca i32, align 4
  %4 = alloca ptr, align 8
  %5 = alloca i32, align 4
  store ptr %0, ptr %4, align 8, !tbaa !3
  store i32 %1, ptr %5, align 4, !tbaa !14
  %6 = load ptr, ptr %4, align 8, !tbaa !3
  %7 = getelementptr inbounds nuw %struct.prolog_state, ptr %6, i32 0, i32 4
  %8 = load i32, ptr %7, align 4, !tbaa !11
  %9 = icmp ne i32 %8, 0
  br i1 %9, label %14, label %10

10:                                               ; preds = %2
  %11 = load i32, ptr %5, align 4, !tbaa !14
  %12 = icmp eq i32 %11, 28
  br i1 %12, label %13, label %14

13:                                               ; preds = %10
  store i32 59, ptr %3, align 4
  br label %17

14:                                               ; preds = %10, %2
  %15 = load ptr, ptr %4, align 8, !tbaa !3
  %16 = getelementptr inbounds nuw %struct.prolog_state, ptr %15, i32 0, i32 0
  store ptr @error, ptr %16, align 8, !tbaa !8
  store i32 -1, ptr %3, align 4
  br label %17

17:                                               ; preds = %14, %13
  %18 = load i32, ptr %3, align 4
  ret i32 %18
}

; Function Attrs: nounwind uwtable
define internal i32 @element7(ptr noundef %0, i32 noundef %1, ptr noundef %2, ptr noundef %3, ptr noundef %4) #0 {
  %6 = alloca i32, align 4
  %7 = alloca ptr, align 8
  %8 = alloca i32, align 4
  %9 = alloca ptr, align 8
  %10 = alloca ptr, align 8
  %11 = alloca ptr, align 8
  store ptr %0, ptr %7, align 8, !tbaa !3
  store i32 %1, ptr %8, align 4, !tbaa !14
  store ptr %2, ptr %9, align 8, !tbaa !15
  store ptr %3, ptr %10, align 8, !tbaa !15
  store ptr %4, ptr %11, align 8, !tbaa !17
  %12 = load i32, ptr %8, align 4, !tbaa !14
  switch i32 %12, label %80 [
    i32 15, label %13
    i32 24, label %14
    i32 36, label %29
    i32 35, label %44
    i32 37, label %59
    i32 38, label %74
    i32 21, label %77
  ]

13:                                               ; preds = %5
  store i32 39, ptr %6, align 4
  br label %84

14:                                               ; preds = %5
  %15 = load ptr, ptr %7, align 8, !tbaa !3
  %16 = getelementptr inbounds nuw %struct.prolog_state, ptr %15, i32 0, i32 1
  %17 = load i32, ptr %16, align 8, !tbaa !25
  %18 = sub i32 %17, 1
  store i32 %18, ptr %16, align 8, !tbaa !25
  %19 = load ptr, ptr %7, align 8, !tbaa !3
  %20 = getelementptr inbounds nuw %struct.prolog_state, ptr %19, i32 0, i32 1
  %21 = load i32, ptr %20, align 8, !tbaa !25
  %22 = icmp eq i32 %21, 0
  br i1 %22, label %23, label %28

23:                                               ; preds = %14
  %24 = load ptr, ptr %7, align 8, !tbaa !3
  %25 = getelementptr inbounds nuw %struct.prolog_state, ptr %24, i32 0, i32 0
  store ptr @declClose, ptr %25, align 8, !tbaa !8
  %26 = load ptr, ptr %7, align 8, !tbaa !3
  %27 = getelementptr inbounds nuw %struct.prolog_state, ptr %26, i32 0, i32 2
  store i32 39, ptr %27, align 4, !tbaa !22
  br label %28

28:                                               ; preds = %23, %14
  store i32 45, ptr %6, align 4
  br label %84

29:                                               ; preds = %5
  %30 = load ptr, ptr %7, align 8, !tbaa !3
  %31 = getelementptr inbounds nuw %struct.prolog_state, ptr %30, i32 0, i32 1
  %32 = load i32, ptr %31, align 8, !tbaa !25
  %33 = sub i32 %32, 1
  store i32 %33, ptr %31, align 8, !tbaa !25
  %34 = load ptr, ptr %7, align 8, !tbaa !3
  %35 = getelementptr inbounds nuw %struct.prolog_state, ptr %34, i32 0, i32 1
  %36 = load i32, ptr %35, align 8, !tbaa !25
  %37 = icmp eq i32 %36, 0
  br i1 %37, label %38, label %43

38:                                               ; preds = %29
  %39 = load ptr, ptr %7, align 8, !tbaa !3
  %40 = getelementptr inbounds nuw %struct.prolog_state, ptr %39, i32 0, i32 0
  store ptr @declClose, ptr %40, align 8, !tbaa !8
  %41 = load ptr, ptr %7, align 8, !tbaa !3
  %42 = getelementptr inbounds nuw %struct.prolog_state, ptr %41, i32 0, i32 2
  store i32 39, ptr %42, align 4, !tbaa !22
  br label %43

43:                                               ; preds = %38, %29
  store i32 46, ptr %6, align 4
  br label %84

44:                                               ; preds = %5
  %45 = load ptr, ptr %7, align 8, !tbaa !3
  %46 = getelementptr inbounds nuw %struct.prolog_state, ptr %45, i32 0, i32 1
  %47 = load i32, ptr %46, align 8, !tbaa !25
  %48 = sub i32 %47, 1
  store i32 %48, ptr %46, align 8, !tbaa !25
  %49 = load ptr, ptr %7, align 8, !tbaa !3
  %50 = getelementptr inbounds nuw %struct.prolog_state, ptr %49, i32 0, i32 1
  %51 = load i32, ptr %50, align 8, !tbaa !25
  %52 = icmp eq i32 %51, 0
  br i1 %52, label %53, label %58

53:                                               ; preds = %44
  %54 = load ptr, ptr %7, align 8, !tbaa !3
  %55 = getelementptr inbounds nuw %struct.prolog_state, ptr %54, i32 0, i32 0
  store ptr @declClose, ptr %55, align 8, !tbaa !8
  %56 = load ptr, ptr %7, align 8, !tbaa !3
  %57 = getelementptr inbounds nuw %struct.prolog_state, ptr %56, i32 0, i32 2
  store i32 39, ptr %57, align 4, !tbaa !22
  br label %58

58:                                               ; preds = %53, %44
  store i32 47, ptr %6, align 4
  br label %84

59:                                               ; preds = %5
  %60 = load ptr, ptr %7, align 8, !tbaa !3
  %61 = getelementptr inbounds nuw %struct.prolog_state, ptr %60, i32 0, i32 1
  %62 = load i32, ptr %61, align 8, !tbaa !25
  %63 = sub i32 %62, 1
  store i32 %63, ptr %61, align 8, !tbaa !25
  %64 = load ptr, ptr %7, align 8, !tbaa !3
  %65 = getelementptr inbounds nuw %struct.prolog_state, ptr %64, i32 0, i32 1
  %66 = load i32, ptr %65, align 8, !tbaa !25
  %67 = icmp eq i32 %66, 0
  br i1 %67, label %68, label %73

68:                                               ; preds = %59
  %69 = load ptr, ptr %7, align 8, !tbaa !3
  %70 = getelementptr inbounds nuw %struct.prolog_state, ptr %69, i32 0, i32 0
  store ptr @declClose, ptr %70, align 8, !tbaa !8
  %71 = load ptr, ptr %7, align 8, !tbaa !3
  %72 = getelementptr inbounds nuw %struct.prolog_state, ptr %71, i32 0, i32 2
  store i32 39, ptr %72, align 4, !tbaa !22
  br label %73

73:                                               ; preds = %68, %59
  store i32 48, ptr %6, align 4
  br label %84

74:                                               ; preds = %5
  %75 = load ptr, ptr %7, align 8, !tbaa !3
  %76 = getelementptr inbounds nuw %struct.prolog_state, ptr %75, i32 0, i32 0
  store ptr @element6, ptr %76, align 8, !tbaa !8
  store i32 50, ptr %6, align 4
  br label %84

77:                                               ; preds = %5
  %78 = load ptr, ptr %7, align 8, !tbaa !3
  %79 = getelementptr inbounds nuw %struct.prolog_state, ptr %78, i32 0, i32 0
  store ptr @element6, ptr %79, align 8, !tbaa !8
  store i32 49, ptr %6, align 4
  br label %84

80:                                               ; preds = %5
  %81 = load ptr, ptr %7, align 8, !tbaa !3
  %82 = load i32, ptr %8, align 4, !tbaa !14
  %83 = call i32 @common(ptr noundef %81, i32 noundef %82)
  store i32 %83, ptr %6, align 4
  br label %84

84:                                               ; preds = %80, %77, %74, %73, %58, %43, %28, %13
  %85 = load i32, ptr %6, align 4
  ret i32 %85
}