; Function Attrs: mustprogress nofree norecurse nosync nounwind willreturn memory(argmem: readwrite) uwtable
define internal range(i32 -1, 60) i32 @element7(ptr noundef captures(none) %0, i32 noundef %1, ptr readnone captures(none) %2, ptr readnone captures(none) %3, ptr readnone captures(none) %4) #2 {
  switch i32 %1, label %36 [
    i32 15, label %common.exit
    i32 24, label %6
    i32 36, label %13
    i32 35, label %20
    i32 37, label %27
    i32 38, label %34
    i32 21, label %35
  ]

6:                                                ; preds = %5
  %7 = getelementptr inbounds nuw i8, ptr %0, i64 8
  %8 = load i32, ptr %7, align 8, !tbaa !20
  %9 = add i32 %8, -1
  store i32 %9, ptr %7, align 8, !tbaa !20
  %10 = icmp eq i32 %9, 0
  br i1 %10, label %11, label %common.exit

11:                                               ; preds = %6
  store ptr @declClose, ptr %0, align 8, !tbaa !3
  %12 = getelementptr inbounds nuw i8, ptr %0, i64 12
  store i32 39, ptr %12, align 4, !tbaa !15
  br label %common.exit

13:                                               ; preds = %5
  %14 = getelementptr inbounds nuw i8, ptr %0, i64 8
  %15 = load i32, ptr %14, align 8, !tbaa !20
  %16 = add i32 %15, -1
  store i32 %16, ptr %14, align 8, !tbaa !20
  %17 = icmp eq i32 %16, 0
  br i1 %17, label %18, label %common.exit

18:                                               ; preds = %13
  store ptr @declClose, ptr %0, align 8, !tbaa !3
  %19 = getelementptr inbounds nuw i8, ptr %0, i64 12
  store i32 39, ptr %19, align 4, !tbaa !15
  br label %common.exit

20:                                               ; preds = %5
  %21 = getelementptr inbounds nuw i8, ptr %0, i64 8
  %22 = load i32, ptr %21, align 8, !tbaa !20
  %23 = add i32 %22, -1
  store i32 %23, ptr %21, align 8, !tbaa !20
  %24 = icmp eq i32 %23, 0
  br i1 %24, label %25, label %common.exit

25:                                               ; preds = %20
  store ptr @declClose, ptr %0, align 8, !tbaa !3
  %26 = getelementptr inbounds nuw i8, ptr %0, i64 12
  store i32 39, ptr %26, align 4, !tbaa !15
  br label %common.exit

27:                                               ; preds = %5
  %28 = getelementptr inbounds nuw i8, ptr %0, i64 8
  %29 = load i32, ptr %28, align 8, !tbaa !20
  %30 = add i32 %29, -1
  store i32 %30, ptr %28, align 8, !tbaa !20
  %31 = icmp eq i32 %30, 0
  br i1 %31, label %32, label %common.exit

32:                                               ; preds = %27
  store ptr @declClose, ptr %0, align 8, !tbaa !3
  %33 = getelementptr inbounds nuw i8, ptr %0, i64 12
  store i32 39, ptr %33, align 4, !tbaa !15
  br label %common.exit

34:                                               ; preds = %5
  store ptr @element6, ptr %0, align 8, !tbaa !3
  br label %common.exit

35:                                               ; preds = %5
  store ptr @element6, ptr %0, align 8, !tbaa !3
  br label %common.exit

36:                                               ; preds = %5
  %37 = getelementptr inbounds nuw i8, ptr %0, i64 20
  %38 = load i32, ptr %37, align 4, !tbaa !9
  %39 = icmp eq i32 %38, 0
  %40 = icmp eq i32 %1, 28
  %or.cond.i = and i1 %40, %39
  br i1 %or.cond.i, label %common.exit, label %41

41:                                               ; preds = %36
  store ptr @error, ptr %0, align 8, !tbaa !3
  br label %common.exit

common.exit:                                      ; preds = %41, %36, %27, %32, %20, %25, %13, %18, %6, %11, %5, %35, %34
  %.0 = phi i32 [ 49, %35 ], [ 50, %34 ], [ 39, %5 ], [ 45, %11 ], [ 45, %6 ], [ 46, %18 ], [ 46, %13 ], [ 47, %25 ], [ 47, %20 ], [ 48, %32 ], [ 48, %27 ], [ -1, %41 ], [ 59, %36 ]
  ret i32 %.0
}